target datalayout = "e-m:e-p270:32:32-p271:32:32-p272:64:64-i64:64-i128:128-f80:128-n8:16:32:64-S128"
target triple = "x86_64-pc-linux-gnu"

%struct.ipc_server_reply_data = type { i32, i32, ptr }

@.str = private unnamed_addr constant [36 x i8] c"compat/simple-ipc/ipc-unix-socket.c\00", align 1
@.str.27 = private unnamed_addr constant [41 x i8] c"reply_cb called with wrong instance data\00", align 1

; Function Attrs: inlinehint nounwind uwtable
define internal i32 @write_packetized_from_buf_no_flush(ptr noundef %0, i64 noundef %1, i32 noundef %2) #6 {
  %4 = alloca ptr, align 8
  %5 = alloca i64, align 8
  %6 = alloca i32, align 4
  store ptr %0, ptr %4, align 8, !tbaa !4
  store i64 %1, ptr %5, align 8, !tbaa !27
  store i32 %2, ptr %6, align 4, !tbaa !9
  %7 = load ptr, ptr %4, align 8, !tbaa !4
  %8 = load i64, ptr %5, align 8, !tbaa !27
  %9 = load i32, ptr %6, align 4, !tbaa !9
  %10 = call i32 @write_packetized_from_buf_no_flush_count(ptr noundef %7, i64 noundef %8, i32 noundef %9, ptr noundef null)
  ret i32 %10
}

; Function Attrs: nounwind uwtable
define internal i32 @do_io_reply_callback(ptr noundef %0, ptr noundef %1, i64 noundef %2) #0 {
  %4 = alloca ptr, align 8
  %5 = alloca ptr, align 8
  %6 = alloca i64, align 8
  store ptr %0, ptr %4, align 8, !tbaa !95
  store ptr %1, ptr %5, align 8, !tbaa !4
  store i64 %2, ptr %6, align 8, !tbaa !27
  %7 = load ptr, ptr %4, align 8, !tbaa !95
  %8 = getelementptr inbounds nuw %struct.ipc_server_reply_data, ptr %7, i32 0, i32 0
  %9 = load i32, ptr %8, align 8, !tbaa !91
  %10 = icmp ne i32 %9, 0
  br i1 %10, label %11, label %12

11:                                               ; preds = %3
  call void (ptr, i32, ptr, ...) @BUG_fl(ptr noundef @.str, i32 noundef 434, ptr noundef @.str.27) #12
  unreachable

12:                                               ; preds = %3
  %13 = load ptr, ptr %5, align 8, !tbaa !4
  %14 = load i64, ptr %6, align 8, !tbaa !27
  %15 = load ptr, ptr %4, align 8, !tbaa !95
  %16 = getelementptr inbounds nuw %struct.ipc_server_reply_data, ptr %15, i32 0, i32 1
  %17 = load i32, ptr %16, align 4, !tbaa !94
  %18 = call i32 @write_packetized_from_buf_no_flush(ptr noundef %13, i64 noundef %14, i32 noundef %17)
  ret i32 %18
}