; Function Attrs: nounwind uwtable
define internal i32 @do_io_reply_callback(ptr noundef readonly captures(none) %0, ptr noundef %1, i64 noundef %2) #0 {
  %4 = load i32, ptr %0, align 8, !tbaa !64
  %.not = icmp eq i32 %4, 0
  br i1 %.not, label %6, label %5

5:                                                ; preds = %3
  tail call void (ptr, i32, ptr, ...) @BUG_fl(ptr noundef nonnull @.str, i32 noundef 434, ptr noundef nonnull @.str.27) #16
  unreachable

6:                                                ; preds = %3
  %7 = getelementptr inbounds nuw i8, ptr %0, i64 4
  %8 = load i32, ptr %7, align 4, !tbaa !67
  %9 = tail call i32 @write_packetized_from_buf_no_flush_count(ptr noundef %1, i64 noundef %2, i32 noundef %8, ptr noundef null) #13
  ret i32 %9
}